target datalayout = "e-m:e-p270:32:32-p271:32:32-p272:64:64-i64:64-i128:128-f80:128-n8:16:32:64-S128"
target triple = "x86_64-pc-linux-gnu"

%struct.ScanKeyData = type { i32, i16, i16, i32, i32, %struct.FmgrInfo, i64 }
%struct.FmgrInfo = type { ptr, i32, i16, i8, i8, i8, ptr, ptr, ptr }
%struct.HeapTupleData = type { i32, %struct.ItemPointerData, i32, ptr }
%struct.ItemPointerData = type { %struct.BlockIdData, i16 }
%struct.BlockIdData = type { i16, i16 }
%struct.RelationData = type { %struct.RelFileLocator, ptr, i32, i32, i8, i8, i8, i8, i8, i32, i32, i32, i32, ptr, ptr, i32, %struct.LockInfoData, ptr, ptr, ptr, ptr, ptr, i8, ptr, ptr, ptr, ptr, ptr, ptr, i32, ptr, i8, ptr, ptr, i32, i8, i32, ptr, i8, ptr, ptr, ptr, ptr, ptr, ptr, ptr, i32, ptr, ptr, ptr, ptr, ptr, ptr, ptr, ptr, ptr, ptr, ptr, ptr, ptr, ptr, ptr, ptr, ptr, ptr, ptr, i32, i8, ptr }
%struct.RelFileLocator = type { i32, i32, i32 }
%struct.LockInfoData = type { %struct.LockRelId }
%struct.LockRelId = type { i32, i32 }

; Function Attrs: inlinehint nounwind uwtable
define internal i64 @CharGetDatum(i8 noundef signext %0) #7 {
  %2 = alloca i8, align 1
  store i8 %0, ptr %2, align 1
  %3 = load i8, ptr %2, align 1
  %4 = sext i8 %3 to i64
  ret i64 %4
}

; Function Attrs: inlinehint nounwind uwtable
define internal i64 @PointerGetDatum(ptr noundef %0) #7 {
  %2 = alloca ptr, align 8
  store ptr %0, ptr %2, align 8
  %3 = load ptr, ptr %2, align 8
  %4 = ptrtoint ptr %3 to i64
  ret i64 %4
}

; Function Attrs: inlinehint nounwind uwtable
define internal ptr @DatumGetPointer(i64 noundef %0) #7 {
  %2 = alloca i64, align 8
  store i64 %0, ptr %2, align 8
  %3 = load i64, ptr %2, align 8
  %4 = inttoptr i64 %3 to ptr
  ret ptr %4
}

; Function Attrs: inlinehint nounwind uwtable
define internal i64 @Int32GetDatum(i32 noundef %0) #7 {
  %2 = alloca i32, align 4
  store i32 %0, ptr %2, align 4
  %3 = load i32, ptr %2, align 4
  %4 = sext i32 %3 to i64
  ret i64 %4
}

; Function Attrs: inlinehint nounwind uwtable
define internal i64 @ObjectIdGetDatum(i32 noundef %0) #7 {
  %2 = alloca i32, align 4
  store i32 %0, ptr %2, align 4
  %3 = load i32, ptr %2, align 4
  %4 = zext i32 %3 to i64
  ret i64 %4
}

; Function Attrs: nounwind uwtable
define internal void @recordExtensionInitPrivWorker(i32 noundef %0, i32 noundef %1, i32 noundef %2, ptr noundef %3) #0 {
  %5 = alloca i32, align 4
  %6 = alloca i32, align 4
  %7 = alloca i32, align 4
  %8 = alloca ptr, align 8
  %9 = alloca ptr, align 8
  %10 = alloca [3 x %struct.ScanKeyData], align 16
  %11 = alloca ptr, align 8
  %12 = alloca ptr, align 8
  %13 = alloca ptr, align 8
  %14 = alloca i32, align 4
  %15 = alloca i32, align 4
  %16 = alloca ptr, align 8
  %17 = alloca ptr, align 8
  %18 = alloca [5 x i64], align 16
  %19 = alloca [5 x i8], align 1
  %20 = alloca [5 x i8], align 1
  %21 = alloca i64, align 8
  %22 = alloca i8, align 1
  %23 = alloca ptr, align 8
  %24 = alloca [5 x i64], align 16
  %25 = alloca [5 x i8], align 1
  store i32 %0, ptr %5, align 4
  store i32 %1, ptr %6, align 4
  store i32 %2, ptr %7, align 4
  store ptr %3, ptr %8, align 8
  call void @llvm.lifetime.start.p0(i64 8, ptr %9) #9
  call void @llvm.lifetime.start.p0(i64 216, ptr %10) #9
  call void @llvm.lifetime.start.p0(i64 8, ptr %11) #9
  call void @llvm.lifetime.start.p0(i64 8, ptr %12) #9
  call void @llvm.lifetime.start.p0(i64 8, ptr %13) #9
  call void @llvm.lifetime.start.p0(i64 4, ptr %14) #9
  call void @llvm.lifetime.start.p0(i64 4, ptr %15) #9
  call void @llvm.lifetime.start.p0(i64 8, ptr %16) #9
  call void @llvm.lifetime.start.p0(i64 8, ptr %17) #9
  %26 = load ptr, ptr %8, align 8
  %27 = call i32 @aclmembers(ptr noundef %26, ptr noundef %17)
  store i32 %27, ptr %15, align 4
  %28 = call ptr @table_open(i32 noundef 3394, i32 noundef 3)
  store ptr %28, ptr %9, align 8
  %29 = getelementptr inbounds [3 x %struct.ScanKeyData], ptr %10, i64 0, i64 0
  %30 = load i32, ptr %5, align 4
  %31 = call i64 @ObjectIdGetDatum(i32 noundef %30)
  call void @ScanKeyInit(ptr noundef %29, i16 noundef signext 1, i16 noundef zeroext 3, i32 noundef 184, i64 noundef %31)
  %32 = getelementptr inbounds [3 x %struct.ScanKeyData], ptr %10, i64 0, i64 1
  %33 = load i32, ptr %6, align 4
  %34 = call i64 @ObjectIdGetDatum(i32 noundef %33)
  call void @ScanKeyInit(ptr noundef %32, i16 noundef signext 2, i16 noundef zeroext 3, i32 noundef 184, i64 noundef %34)
  %35 = getelementptr inbounds [3 x %struct.ScanKeyData], ptr %10, i64 0, i64 2
  %36 = load i32, ptr %7, align 4
  %37 = call i64 @Int32GetDatum(i32 noundef %36)
  call void @ScanKeyInit(ptr noundef %35, i16 noundef signext 3, i16 noundef zeroext 3, i32 noundef 65, i64 noundef %37)
  %38 = load ptr, ptr %9, align 8
  %39 = getelementptr inbounds [3 x %struct.ScanKeyData], ptr %10, i64 0, i64 0
  %40 = call ptr @systable_beginscan(ptr noundef %38, i32 noundef 3395, i1 noundef zeroext true, ptr noundef null, i32 noundef 3, ptr noundef %39)
  store ptr %40, ptr %11, align 8
  %41 = load ptr, ptr %11, align 8
  %42 = call ptr @systable_getnext(ptr noundef %41)
  store ptr %42, ptr %13, align 8
  %43 = load ptr, ptr %13, align 8
  %44 = icmp ne ptr %43, null
  br i1 %44, label %45, label %93

45:                                               ; preds = %4
  call void @llvm.lifetime.start.p0(i64 40, ptr %18) #9
  call void @llvm.memset.p0.i64(ptr align 16 %18, i8 0, i64 40, i1 false)
  call void @llvm.lifetime.start.p0(i64 5, ptr %19) #9
  call void @llvm.memset.p0.i64(ptr align 1 %19, i8 0, i64 5, i1 false)
  call void @llvm.lifetime.start.p0(i64 5, ptr %20) #9
  call void @llvm.memset.p0.i64(ptr align 1 %20, i8 0, i64 5, i1 false)
  call void @llvm.lifetime.start.p0(i64 8, ptr %21) #9
  call void @llvm.lifetime.start.p0(i64 1, ptr %22) #9
  call void @llvm.lifetime.start.p0(i64 8, ptr %23) #9
  %46 = load ptr, ptr %13, align 8
  %47 = load ptr, ptr %9, align 8
  %48 = getelementptr inbounds nuw %struct.RelationData, ptr %47, i32 0, i32 14
  %49 = load ptr, ptr %48, align 8
  %50 = call i64 @heap_getattr(ptr noundef %46, i32 noundef 5, ptr noundef %49, ptr noundef %22)
  store i64 %50, ptr %21, align 8
  %51 = load i64, ptr %21, align 8
  %52 = call ptr @DatumGetPointer(i64 noundef %51)
  %53 = call ptr @pg_detoast_datum(ptr noundef %52)
  store ptr %53, ptr %23, align 8
  %54 = load ptr, ptr %23, align 8
  %55 = call i32 @aclmembers(ptr noundef %54, ptr noundef %16)
  store i32 %55, ptr %14, align 4
  %56 = load i32, ptr %6, align 4
  %57 = load i32, ptr %5, align 4
  %58 = load i32, ptr %7, align 4
  %59 = load i32, ptr %14, align 4
  %60 = load ptr, ptr %16, align 8
  %61 = load i32, ptr %15, align 4
  %62 = load ptr, ptr %17, align 8
  call void @updateInitAclDependencies(i32 noundef %56, i32 noundef %57, i32 noundef %58, i32 noundef %59, ptr noundef %60, i32 noundef %61, ptr noundef %62)
  %63 = load ptr, ptr %8, align 8
  %64 = icmp ne ptr %63, null
  br i1 %64, label %65, label %88

65:                                               ; preds = %45
  %66 = load ptr, ptr %8, align 8
  %67 = getelementptr inbounds nuw i8, ptr %66, i64 16
  %68 = getelementptr inbounds i32, ptr %67, i64 0
  %69 = load i32, ptr %68, align 4
  %70 = icmp ne i32 %69, 0
  br i1 %70, label %71, label %88

71:                                               ; preds = %65
  %72 = load ptr, ptr %8, align 8
  %73 = call i64 @PointerGetDatum(ptr noundef %72)
  %74 = getelementptr inbounds [5 x i64], ptr %18, i64 0, i64 4
  store i64 %73, ptr %74, align 16
  %75 = getelementptr inbounds [5 x i8], ptr %20, i64 0, i64 4
  store i8 1, ptr %75, align 1
  %76 = load ptr, ptr %13, align 8
  %77 = load ptr, ptr %9, align 8
  %78 = getelementptr inbounds nuw %struct.RelationData, ptr %77, i32 0, i32 14
  %79 = load ptr, ptr %78, align 8
  %80 = getelementptr inbounds [5 x i64], ptr %18, i64 0, i64 0
  %81 = getelementptr inbounds [5 x i8], ptr %19, i64 0, i64 0
  %82 = getelementptr inbounds [5 x i8], ptr %20, i64 0, i64 0
  %83 = call ptr @heap_modify_tuple(ptr noundef %76, ptr noundef %79, ptr noundef %80, ptr noundef %81, ptr noundef %82)
  store ptr %83, ptr %13, align 8
  %84 = load ptr, ptr %9, align 8
  %85 = load ptr, ptr %13, align 8
  %86 = getelementptr inbounds nuw %struct.HeapTupleData, ptr %85, i32 0, i32 1
  %87 = load ptr, ptr %13, align 8
  call void @CatalogTupleUpdate(ptr noundef %84, ptr noundef %86, ptr noundef %87)
  br label %92

88:                                               ; preds = %65, %45
  %89 = load ptr, ptr %9, align 8
  %90 = load ptr, ptr %13, align 8
  %91 = getelementptr inbounds nuw %struct.HeapTupleData, ptr %90, i32 0, i32 1
  call void @CatalogTupleDelete(ptr noundef %89, ptr noundef %91)
  br label %92

92:                                               ; preds = %88, %71
  call void @llvm.lifetime.end.p0(i64 8, ptr %23) #9
  call void @llvm.lifetime.end.p0(i64 1, ptr %22) #9
  call void @llvm.lifetime.end.p0(i64 8, ptr %21) #9
  call void @llvm.lifetime.end.p0(i64 5, ptr %20) #9
  call void @llvm.lifetime.end.p0(i64 5, ptr %19) #9
  call void @llvm.lifetime.end.p0(i64 40, ptr %18) #9
  br label %133

93:                                               ; preds = %4
  call void @llvm.lifetime.start.p0(i64 40, ptr %24) #9
  call void @llvm.memset.p0.i64(ptr align 16 %24, i8 0, i64 40, i1 false)
  call void @llvm.lifetime.start.p0(i64 5, ptr %25) #9
  call void @llvm.memset.p0.i64(ptr align 1 %25, i8 0, i64 5, i1 false)
  %94 = load ptr, ptr %8, align 8
  %95 = icmp ne ptr %94, null
  br i1 %95, label %96, label %132

96:                                               ; preds = %93
  %97 = load ptr, ptr %8, align 8
  %98 = getelementptr inbounds nuw i8, ptr %97, i64 16
  %99 = getelementptr inbounds i32, ptr %98, i64 0
  %100 = load i32, ptr %99, align 4
  %101 = icmp ne i32 %100, 0
  br i1 %101, label %102, label %132

102:                                              ; preds = %96
  %103 = load i32, ptr %5, align 4
  %104 = call i64 @ObjectIdGetDatum(i32 noundef %103)
  %105 = getelementptr inbounds [5 x i64], ptr %24, i64 0, i64 0
  store i64 %104, ptr %105, align 16
  %106 = load i32, ptr %6, align 4
  %107 = call i64 @ObjectIdGetDatum(i32 noundef %106)
  %108 = getelementptr inbounds [5 x i64], ptr %24, i64 0, i64 1
  store i64 %107, ptr %108, align 8
  %109 = load i32, ptr %7, align 4
  %110 = call i64 @Int32GetDatum(i32 noundef %109)
  %111 = getelementptr inbounds [5 x i64], ptr %24, i64 0, i64 2
  store i64 %110, ptr %111, align 16
  %112 = call i64 @CharGetDatum(i8 noundef signext 101)
  %113 = getelementptr inbounds [5 x i64], ptr %24, i64 0, i64 3
  store i64 %112, ptr %113, align 8
  %114 = load ptr, ptr %8, align 8
  %115 = call i64 @PointerGetDatum(ptr noundef %114)
  %116 = getelementptr inbounds [5 x i64], ptr %24, i64 0, i64 4
  store i64 %115, ptr %116, align 16
  %117 = load ptr, ptr %9, align 8
  %118 = getelementptr inbounds nuw %struct.RelationData, ptr %117, i32 0, i32 14
  %119 = load ptr, ptr %118, align 8
  %120 = getelementptr inbounds [5 x i64], ptr %24, i64 0, i64 0
  %121 = getelementptr inbounds [5 x i8], ptr %25, i64 0, i64 0
  %122 = call ptr @heap_form_tuple(ptr noundef %119, ptr noundef %120, ptr noundef %121)
  store ptr %122, ptr %12, align 8
  %123 = load ptr, ptr %9, align 8
  %124 = load ptr, ptr %12, align 8
  call void @CatalogTupleInsert(ptr noundef %123, ptr noundef %124)
  store i32 0, ptr %14, align 4
  store ptr null, ptr %16, align 8
  %125 = load i32, ptr %6, align 4
  %126 = load i32, ptr %5, align 4
  %127 = load i32, ptr %7, align 4
  %128 = load i32, ptr %14, align 4
  %129 = load ptr, ptr %16, align 8
  %130 = load i32, ptr %15, align 4
  %131 = load ptr, ptr %17, align 8
  call void @updateInitAclDependencies(i32 noundef %125, i32 noundef %126, i32 noundef %127, i32 noundef %128, ptr noundef %129, i32 noundef %130, ptr noundef %131)
  br label %132

132:                                              ; preds = %102, %96, %93
  call void @llvm.lifetime.end.p0(i64 5, ptr %25) #9
  call void @llvm.lifetime.end.p0(i64 40, ptr %24) #9
  br label %133

133:                                              ; preds = %132, %92
  %134 = load ptr, ptr %11, align 8
  call void @systable_endscan(ptr noundef %134)
  call void @CommandCounterIncrement()
  %135 = load ptr, ptr %9, align 8
  call void @table_close(ptr noundef %135, i32 noundef 3)
  call void @llvm.lifetime.end.p0(i64 8, ptr %17) #9
  call void @llvm.lifetime.end.p0(i64 8, ptr %16) #9
  call void @llvm.lifetime.end.p0(i64 4, ptr %15) #9
  call void @llvm.lifetime.end.p0(i64 4, ptr %14) #9
  call void @llvm.lifetime.end.p0(i64 8, ptr %13) #9
  call void @llvm.lifetime.end.p0(i64 8, ptr %12) #9
  call void @llvm.lifetime.end.p0(i64 8, ptr %11) #9
  call void @llvm.lifetime.end.p0(i64 216, ptr %10) #9
  call void @llvm.lifetime.end.p0(i64 8, ptr %9) #9
  ret void
}