; Function Attrs: nounwind uwtable
define internal fastcc void @recordExtensionInitPrivWorker(i32 noundef %0, i32 noundef %1, i32 noundef range(i32 -32768, 32768) %2, ptr noundef %3) unnamed_addr #0 {
  %5 = alloca [3 x %struct.ScanKeyData], align 16
  %6 = alloca ptr, align 8
  %7 = alloca ptr, align 8
  %8 = alloca [5 x i64], align 16
  %9 = alloca [5 x i8], align 1
  %10 = alloca [5 x i8], align 4
  %11 = alloca i8, align 1
  %12 = alloca [5 x i64], align 16
  %13 = alloca [5 x i8], align 1
  call void @llvm.lifetime.start.p0(i64 216, ptr nonnull %5) #9
  call void @llvm.lifetime.start.p0(i64 8, ptr nonnull %6) #9
  call void @llvm.lifetime.start.p0(i64 8, ptr nonnull %7) #9
  %14 = call i32 @aclmembers(ptr noundef %3, ptr noundef nonnull %7) #9
  %15 = call ptr @table_open(i32 noundef 3394, i32 noundef 3) #9
  %16 = zext i32 %0 to i64
  call void @ScanKeyInit(ptr noundef nonnull %5, i16 noundef signext 1, i16 noundef zeroext 3, i32 noundef 184, i64 noundef %16) #9
  %17 = getelementptr inbounds nuw i8, ptr %5, i64 72
  %18 = zext i32 %1 to i64
  call void @ScanKeyInit(ptr noundef nonnull %17, i16 noundef signext 2, i16 noundef zeroext 3, i32 noundef 184, i64 noundef %18) #9
  %19 = getelementptr inbounds nuw i8, ptr %5, i64 144
  %20 = sext i32 %2 to i64
  call void @ScanKeyInit(ptr noundef nonnull %19, i16 noundef signext 3, i16 noundef zeroext 3, i32 noundef 65, i64 noundef %20) #9
  %21 = call ptr @systable_beginscan(ptr noundef %15, i32 noundef 3395, i1 noundef zeroext true, ptr noundef null, i32 noundef 3, ptr noundef nonnull %5) #9
  %22 = call ptr @systable_getnext(ptr noundef %21) #9
  %.not = icmp eq ptr %22, null
  br i1 %.not, label %45, label %23

23:                                               ; preds = %4
  call void @llvm.lifetime.start.p0(i64 40, ptr nonnull %8) #9
  call void @llvm.memset.p0.i64(ptr noundef nonnull align 16 dereferenceable(40) %8, i8 0, i64 32, i1 false)
  call void @llvm.lifetime.start.p0(i64 5, ptr nonnull %9) #9
  call void @llvm.memset.p0.i64(ptr noundef nonnull align 1 dereferenceable(5) %9, i8 0, i64 5, i1 false)
  call void @llvm.lifetime.start.p0(i64 5, ptr nonnull %10) #9
  store i32 0, ptr %10, align 4
  call void @llvm.lifetime.start.p0(i64 1, ptr nonnull %11) #9
  %24 = getelementptr inbounds nuw i8, ptr %15, i64 64
  %25 = load ptr, ptr %24, align 8
  %26 = call fastcc i64 @heap_getattr(ptr noundef %22, i32 noundef 5, ptr noundef %25, ptr noundef %11)
  %27 = inttoptr i64 %26 to ptr
  %28 = call ptr @pg_detoast_datum(ptr noundef %27) #9
  %29 = call i32 @aclmembers(ptr noundef %28, ptr noundef nonnull %6) #9
  %30 = load ptr, ptr %6, align 8
  %31 = load ptr, ptr %7, align 8
  call void @updateInitAclDependencies(i32 noundef %1, i32 noundef %0, i32 noundef %2, i32 noundef %29, ptr noundef %30, i32 noundef %14, ptr noundef %31) #9
  %.not44 = icmp eq ptr %3, null
  br i1 %.not44, label %42, label %32

32:                                               ; preds = %23
  %33 = getelementptr inbounds nuw i8, ptr %3, i64 16
  %34 = load i32, ptr %33, align 4
  %.not45 = icmp eq i32 %34, 0
  br i1 %.not45, label %42, label %35

35:                                               ; preds = %32
  %36 = ptrtoint ptr %3 to i64
  %37 = getelementptr inbounds nuw i8, ptr %8, i64 32
  store i64 %36, ptr %37, align 16
  %38 = getelementptr inbounds nuw i8, ptr %10, i64 4
  store i8 1, ptr %38, align 4
  %39 = load ptr, ptr %24, align 8
  %40 = call ptr @heap_modify_tuple(ptr noundef nonnull %22, ptr noundef %39, ptr noundef nonnull %8, ptr noundef nonnull %9, ptr noundef nonnull %10) #9
  %41 = getelementptr inbounds nuw i8, ptr %40, i64 4
  call void @CatalogTupleUpdate(ptr noundef nonnull %15, ptr noundef nonnull %41, ptr noundef %40) #9
  br label %44

42:                                               ; preds = %32, %23
  %43 = getelementptr inbounds nuw i8, ptr %22, i64 4
  call void @CatalogTupleDelete(ptr noundef nonnull %15, ptr noundef nonnull %43) #9
  br label %44

44:                                               ; preds = %42, %35
  call void @llvm.lifetime.end.p0(i64 1, ptr nonnull %11) #9
  call void @llvm.lifetime.end.p0(i64 5, ptr nonnull %10) #9
  call void @llvm.lifetime.end.p0(i64 5, ptr nonnull %9) #9
  call void @llvm.lifetime.end.p0(i64 40, ptr nonnull %8) #9
  br label %60

45:                                               ; preds = %4
  call void @llvm.lifetime.start.p0(i64 40, ptr nonnull %12) #9
  call void @llvm.lifetime.start.p0(i64 5, ptr nonnull %13) #9
  call void @llvm.memset.p0.i64(ptr noundef nonnull align 1 dereferenceable(5) %13, i8 0, i64 5, i1 false)
  %.not42 = icmp eq ptr %3, null
  br i1 %.not42, label %59, label %46

46:                                               ; preds = %45
  %47 = getelementptr inbounds nuw i8, ptr %3, i64 16
  %48 = load i32, ptr %47, align 4
  %.not43 = icmp eq i32 %48, 0
  br i1 %.not43, label %59, label %49

49:                                               ; preds = %46
  store i64 %16, ptr %12, align 16
  %50 = getelementptr inbounds nuw i8, ptr %12, i64 8
  store i64 %18, ptr %50, align 8
  %51 = getelementptr inbounds nuw i8, ptr %12, i64 16
  store i64 %20, ptr %51, align 16
  %52 = getelementptr inbounds nuw i8, ptr %12, i64 24
  store i64 101, ptr %52, align 8
  %53 = ptrtoint ptr %3 to i64
  %54 = getelementptr inbounds nuw i8, ptr %12, i64 32
  store i64 %53, ptr %54, align 16
  %55 = getelementptr inbounds nuw i8, ptr %15, i64 64
  %56 = load ptr, ptr %55, align 8
  %57 = call ptr @heap_form_tuple(ptr noundef %56, ptr noundef nonnull %12, ptr noundef nonnull %13) #9
  call void @CatalogTupleInsert(ptr noundef %15, ptr noundef %57) #9
  store ptr null, ptr %6, align 8
  %58 = load ptr, ptr %7, align 8
  call void @updateInitAclDependencies(i32 noundef %1, i32 noundef %0, i32 noundef %2, i32 noundef 0, ptr noundef null, i32 noundef %14, ptr noundef %58) #9
  br label %59

59:                                               ; preds = %49, %46, %45
  call void @llvm.lifetime.end.p0(i64 5, ptr nonnull %13) #9
  call void @llvm.lifetime.end.p0(i64 40, ptr nonnull %12) #9
  br label %60

60:                                               ; preds = %59, %44
  call void @systable_endscan(ptr noundef %21) #9
  call void @CommandCounterIncrement() #9
  call void @table_close(ptr noundef %15, i32 noundef 3) #9
  call void @llvm.lifetime.end.p0(i64 8, ptr nonnull %7) #9
  call void @llvm.lifetime.end.p0(i64 8, ptr nonnull %6) #9
  call void @llvm.lifetime.end.p0(i64 216, ptr nonnull %5) #9
  ret void
}